; Function Attrs: mustprogress nounwind uwtable
define hidden void @_ZNK13YoungGCTracer33send_promotion_outside_plab_eventEP5Klassmjb(ptr nocapture noundef nonnull readnone align 8 dereferenceable(84) %0, ptr noundef %1, i64 noundef %2, i32 noundef %3, i1 noundef zeroext %4) local_unnamed_addr #1 align 2 {
  %6 = alloca %class.EventPromoteObjectOutsidePLAB, align 8
  %7 = getelementptr inbounds i8, ptr %6, i64 8
  call void @llvm.memset.p0.i64(ptr noundef nonnull align 8 dereferenceable(11) %7, i8 0, i64 11, i1 false)
  %8 = load i8, ptr getelementptr inbounds (i8, ptr @_ZN15JfrEventSetting19_jvm_event_settingsE, i64 1457), align 1
  %.not.i.not = icmp eq i8 %8, 0
  br i1 %.not.i.not, label %_ZN8JfrEventI29EventPromoteObjectOutsidePLABE13should_commitEv.exit, label %9

9:                                                ; preds = %5
  %10 = getelementptr inbounds i8, ptr %6, i64 18
  %11 = getelementptr inbounds i8, ptr %6, i64 17
  %12 = tail call noundef i64 @_ZN33FastUnorderedElapsedCounterSource3nowEv() #11
  store i64 %12, ptr %6, align 8
  store i8 1, ptr %11, align 1
  store i8 1, ptr %10, align 2
  %13 = tail call noundef i32 @_ZN4GCId7currentEv() #11
  %14 = getelementptr inbounds i8, ptr %6, i64 20
  store i32 %13, ptr %14, align 4
  %15 = getelementptr inbounds i8, ptr %6, i64 24
  store ptr %1, ptr %15, align 8
  %16 = getelementptr inbounds i8, ptr %6, i64 32
  store i64 %2, ptr %16, align 8
  %17 = zext i1 %4 to i8
  %18 = getelementptr inbounds i8, ptr %6, i64 44
  store i8 %17, ptr %18, align 4
  %19 = getelementptr inbounds i8, ptr %6, i64 40
  store i32 %3, ptr %19, align 8
  call void @_ZN8JfrEventI29EventPromoteObjectOutsidePLABE6commitEv(ptr noundef nonnull align 8 dereferenceable(19) %6)
  br label %_ZN8JfrEventI29EventPromoteObjectOutsidePLABE13should_commitEv.exit

_ZN8JfrEventI29EventPromoteObjectOutsidePLABE13should_commitEv.exit: ; preds = %5, %9
  ret void
}